; Function Attrs: mustprogress nounwind willreturn uwtable
define internal fastcc range(i32 0, 2) i32 @cbb_buffer_add(ptr noundef captures(address_is_null) %0, ptr noundef writeonly captures(address_is_null) %1, i64 noundef %2) unnamed_addr #7 {
  %4 = icmp eq ptr %0, null
  br i1 %4, label %cbb_buffer_reserve.exit.thread, label %5

5:                                                ; preds = %3
  %6 = getelementptr inbounds nuw i8, ptr %0, i64 8
  %7 = load i64, ptr %6, align 8, !tbaa !13
  %8 = add i64 %7, %2
  %9 = icmp ult i64 %8, %7
  br i1 %9, label %cbb_buffer_reserve.exit.thread, label %10

10:                                               ; preds = %5
  %11 = getelementptr inbounds nuw i8, ptr %0, i64 16
  %12 = load i64, ptr %11, align 8, !tbaa !14
  %13 = icmp ugt i64 %8, %12
  br i1 %13, label %14, label %24

14:                                               ; preds = %10
  %15 = getelementptr inbounds nuw i8, ptr %0, i64 24
  %16 = load i8, ptr %15, align 8, !tbaa !15
  %.not.i = icmp eq i8 %16, 0
  br i1 %.not.i, label %cbb_buffer_reserve.exit.thread, label %17

17:                                               ; preds = %14
  %18 = shl i64 %12, 1
  %19 = icmp slt i64 %12, 0
  %20 = tail call i64 @llvm.umax.i64(i64 %18, i64 %8)
  %.026.i = select i1 %19, i64 %8, i64 %20
  %21 = load ptr, ptr %0, align 8, !tbaa !6
  %22 = tail call ptr @realloc(ptr noundef %21, i64 noundef %.026.i) #16
  %23 = icmp eq ptr %22, null
  br i1 %23, label %cbb_buffer_reserve.exit.thread, label %.critedge.i

.critedge.i:                                      ; preds = %17
  store ptr %22, ptr %0, align 8, !tbaa !6
  store i64 %.026.i, ptr %11, align 8, !tbaa !14
  %.pre.pre = load i64, ptr %6, align 8, !tbaa !13
  br label %24

24:                                               ; preds = %.critedge.i, %10
  %.pre = phi i64 [ %.pre.pre, %.critedge.i ], [ %7, %10 ]
  %.not34.i = icmp eq ptr %1, null
  br i1 %.not34.i, label %cbb_buffer_reserve.exit, label %25

25:                                               ; preds = %24
  %26 = load ptr, ptr %0, align 8, !tbaa !6
  %27 = getelementptr inbounds nuw i8, ptr %26, i64 %.pre
  store ptr %27, ptr %1, align 8, !tbaa !21
  br label %cbb_buffer_reserve.exit

cbb_buffer_reserve.exit:                          ; preds = %25, %24
  %28 = add i64 %.pre, %2
  store i64 %28, ptr %6, align 8, !tbaa !13
  br label %cbb_buffer_reserve.exit.thread

cbb_buffer_reserve.exit.thread:                   ; preds = %14, %17, %5, %3, %cbb_buffer_reserve.exit
  %.0 = phi i32 [ 1, %cbb_buffer_reserve.exit ], [ 0, %3 ], [ 0, %5 ], [ 0, %17 ], [ 0, %14 ]
  ret i32 %.0
}